; Function Attrs: mustprogress nofree norecurse nosync nounwind willreturn memory(read, inaccessiblemem: none) uwtable
define ptr @get_active_function_name() local_unnamed_addr #4 {
  %1 = load ptr, ptr getelementptr inbounds (%struct._zend_executor_globals, ptr @executor_globals, i64 0, i32 17), align 8
  %.not14 = icmp eq ptr %1, null
  br i1 %.not14, label %25, label %2

2:                                                ; preds = %0
  %3 = getelementptr inbounds i8, ptr %1, i64 24
  %4 = load ptr, ptr %3, align 8
  %5 = load i8, ptr %4, align 8
  %.not = icmp eq i8 %5, 1
  br i1 %.not, label %zend_active_function_ex.exit.thread, label %6

6:                                                ; preds = %2
  %7 = load ptr, ptr %1, align 8
  %8 = getelementptr inbounds i8, ptr %7, i64 28
  %9 = load i8, ptr %8, align 4
  %10 = and i8 %9, -4
  %or.cond.i = icmp eq i8 %10, -52
  br i1 %or.cond.i, label %11, label %zend_active_function_ex.exit

11:                                               ; preds = %6
  %12 = load ptr, ptr @zend_flf_functions, align 8
  %13 = getelementptr inbounds i8, ptr %7, i64 20
  %14 = load i32, ptr %13, align 4
  %15 = zext i32 %14 to i64
  %16 = getelementptr inbounds ptr, ptr %12, i64 %15
  %17 = load ptr, ptr %16, align 8
  %.pr.pre = load i8, ptr %17, align 8
  br label %zend_active_function_ex.exit

zend_active_function_ex.exit:                     ; preds = %11, %6
  %.pr = phi i8 [ %5, %6 ], [ %.pr.pre, %11 ]
  %.0.ph = phi ptr [ %4, %6 ], [ %17, %11 ]
  switch i8 %.pr, label %25 [
    i8 2, label %18
    i8 1, label %zend_active_function_ex.exit.thread
  ]

18:                                               ; preds = %zend_active_function_ex.exit
  %19 = getelementptr inbounds i8, ptr %.0.ph, i64 8
  %20 = load ptr, ptr %19, align 8
  %.not11 = icmp eq ptr %20, null
  %21 = getelementptr inbounds i8, ptr %20, i64 24
  %spec.select = select i1 %.not11, ptr @.str.2, ptr %21
  br label %25

zend_active_function_ex.exit.thread:              ; preds = %2, %zend_active_function_ex.exit
  %.013 = phi ptr [ %.0.ph, %zend_active_function_ex.exit ], [ %4, %2 ]
  %22 = getelementptr inbounds i8, ptr %.013, i64 8
  %23 = load ptr, ptr %22, align 8
  %24 = getelementptr inbounds i8, ptr %23, i64 24
  br label %25

25:                                               ; preds = %18, %zend_active_function_ex.exit, %0, %zend_active_function_ex.exit.thread
  %.09 = phi ptr [ %24, %zend_active_function_ex.exit.thread ], [ null, %0 ], [ null, %zend_active_function_ex.exit ], [ %spec.select, %18 ]
  ret ptr %.09
}